target datalayout = "e-m:e-p270:32:32-p271:32:32-p272:64:64-i64:64-i128:128-f80:128-n8:16:32:64-S128"
target triple = "x86_64-unknown-linux-gnu"

%"class.std::vector" = type { %"struct.std::_Vector_base" }
%"struct.std::_Vector_base" = type { %"struct.std::_Vector_base<double, std::allocator<double>>::_Vector_impl" }
%"struct.std::_Vector_base<double, std::allocator<double>>::_Vector_impl" = type { %"struct.std::_Vector_base<double, std::allocator<double>>::_Vector_impl_data" }
%"struct.std::_Vector_base<double, std::allocator<double>>::_Vector_impl_data" = type { ptr, ptr, ptr }
%"struct.QuantLib::Sample" = type { %"class.std::vector", double }
%"class.std::vector.9" = type { %"struct.std::_Vector_base.10" }
%"struct.std::_Vector_base.10" = type { %"struct.std::_Vector_base<unsigned long, std::allocator<unsigned long>>::_Vector_impl" }
%"struct.std::_Vector_base<unsigned long, std::allocator<unsigned long>>::_Vector_impl" = type { %"struct.std::_Vector_base<unsigned long, std::allocator<unsigned long>>::_Vector_impl_data" }
%"struct.std::_Vector_base<unsigned long, std::allocator<unsigned long>>::_Vector_impl_data" = type { ptr, ptr, ptr }
%"class.QuantLib::HaltonRsg" = type { i64, i64, %"struct.QuantLib::Sample", %"class.std::vector.9", %"class.std::vector" }

; Function Attrs: mustprogress nounwind uwtable
define linkonce_odr noundef nonnull align 8 dereferenceable(8) ptr @_ZNSt6vectorIdSaIdEEixEm(ptr noundef nonnull align 8 dereferenceable(24) %this, i64 noundef %__n) #3 comdat align 2 {
entry:
  %this.addr = alloca ptr, align 8
  %__n.addr = alloca i64, align 8
  store ptr %this, ptr %this.addr, align 8, !tbaa !3
  store i64 %__n, ptr %__n.addr, align 8, !tbaa !7
  %this1 = load ptr, ptr %this.addr, align 8
  %_M_impl = getelementptr inbounds nuw %"struct.std::_Vector_base", ptr %this1, i32 0, i32 0
  %_M_start = getelementptr inbounds nuw %"struct.std::_Vector_base<double, std::allocator<double>>::_Vector_impl_data", ptr %_M_impl, i32 0, i32 0
  %0 = load ptr, ptr %_M_start, align 8, !tbaa !28
  %1 = load i64, ptr %__n.addr, align 8, !tbaa !7
  %add.ptr = getelementptr inbounds nuw double, ptr %0, i64 %1
  ret ptr %add.ptr
}

; Function Attrs: mustprogress nounwind uwtable
define linkonce_odr noundef nonnull align 8 dereferenceable(8) ptr @_ZNKSt6vectorIdSaIdEEixEm(ptr noundef nonnull align 8 dereferenceable(24) %this, i64 noundef %__n) #3 comdat align 2 {
entry:
  %this.addr = alloca ptr, align 8
  %__n.addr = alloca i64, align 8
  store ptr %this, ptr %this.addr, align 8, !tbaa !3
  store i64 %__n, ptr %__n.addr, align 8, !tbaa !7
  %this1 = load ptr, ptr %this.addr, align 8
  %_M_impl = getelementptr inbounds nuw %"struct.std::_Vector_base", ptr %this1, i32 0, i32 0
  %_M_start = getelementptr inbounds nuw %"struct.std::_Vector_base<double, std::allocator<double>>::_Vector_impl_data", ptr %_M_impl, i32 0, i32 0
  %0 = load ptr, ptr %_M_start, align 8, !tbaa !28
  %1 = load i64, ptr %__n.addr, align 8, !tbaa !7
  %add.ptr = getelementptr inbounds nuw double, ptr %0, i64 %1
  ret ptr %add.ptr
}

; Function Attrs: mustprogress nounwind uwtable
define linkonce_odr noundef nonnull align 8 dereferenceable(8) ptr @_ZNKSt6vectorImSaImEEixEm(ptr noundef nonnull align 8 dereferenceable(24) %this, i64 noundef %__n) #3 comdat align 2 {
entry:
  %this.addr = alloca ptr, align 8
  %__n.addr = alloca i64, align 8
  store ptr %this, ptr %this.addr, align 8, !tbaa !3
  store i64 %__n, ptr %__n.addr, align 8, !tbaa !7
  %this1 = load ptr, ptr %this.addr, align 8
  %_M_impl = getelementptr inbounds nuw %"struct.std::_Vector_base.10", ptr %this1, i32 0, i32 0
  %_M_start = getelementptr inbounds nuw %"struct.std::_Vector_base<unsigned long, std::allocator<unsigned long>>::_Vector_impl_data", ptr %_M_impl, i32 0, i32 0
  %0 = load ptr, ptr %_M_start, align 8, !tbaa !37
  %1 = load i64, ptr %__n.addr, align 8, !tbaa !7
  %add.ptr = getelementptr inbounds nuw i64, ptr %0, i64 %1
  ret ptr %add.ptr
}

; Function Attrs: mustprogress uwtable
define noundef nonnull align 8 dereferenceable(32) ptr @_ZNK8QuantLib9HaltonRsg12nextSequenceEv(ptr noundef nonnull align 8 dereferenceable(96) %this) #2 align 2 {
entry:
  %this.addr = alloca ptr, align 8
  %i = alloca i64, align 8
  %h = alloca double, align 8
  %b = alloca i64, align 8
  %f = alloca double, align 8
  %k = alloca i64, align 8
  store ptr %this, ptr %this.addr, align 8, !tbaa !3
  %this1 = load ptr, ptr %this.addr, align 8
  %sequenceCounter_ = getelementptr inbounds nuw %"class.QuantLib::HaltonRsg", ptr %this1, i32 0, i32 1
  %0 = load i64, ptr %sequenceCounter_, align 8, !tbaa !23
  %inc = add i64 %0, 1
  store i64 %inc, ptr %sequenceCounter_, align 8, !tbaa !23
  call void @llvm.lifetime.start.p0(i64 8, ptr %i) #15
  store i64 0, ptr %i, align 8, !tbaa !7
  br label %for.cond

for.cond:                                         ; preds = %for.inc, %entry
  %1 = load i64, ptr %i, align 8, !tbaa !7
  %dimensionality_ = getelementptr inbounds nuw %"class.QuantLib::HaltonRsg", ptr %this1, i32 0, i32 0
  %2 = load i64, ptr %dimensionality_, align 8, !tbaa !11
  %cmp = icmp ult i64 %1, %2
  br i1 %cmp, label %for.body, label %for.cond.cleanup

for.cond.cleanup:                                 ; preds = %for.cond
  call void @llvm.lifetime.end.p0(i64 8, ptr %i) #15
  br label %for.end

for.body:                                         ; preds = %for.cond
  call void @llvm.lifetime.start.p0(i64 8, ptr %h) #15
  store double 0.000000e+00, ptr %h, align 8, !tbaa !24
  call void @llvm.lifetime.start.p0(i64 8, ptr %b) #15
  %3 = load i64, ptr %i, align 8, !tbaa !7
  %call = call noundef i64 @_ZN8QuantLib12PrimeNumbers3getEm(i64 noundef %3)
  store i64 %call, ptr %b, align 8, !tbaa !7
  call void @llvm.lifetime.start.p0(i64 8, ptr %f) #15
  store double 1.000000e+00, ptr %f, align 8, !tbaa !24
  call void @llvm.lifetime.start.p0(i64 8, ptr %k) #15
  %sequenceCounter_2 = getelementptr inbounds nuw %"class.QuantLib::HaltonRsg", ptr %this1, i32 0, i32 1
  %4 = load i64, ptr %sequenceCounter_2, align 8, !tbaa !23
  %randomStart_ = getelementptr inbounds nuw %"class.QuantLib::HaltonRsg", ptr %this1, i32 0, i32 3
  %5 = load i64, ptr %i, align 8, !tbaa !7
  %call3 = call noundef nonnull align 8 dereferenceable(8) ptr @_ZNKSt6vectorImSaImEEixEm(ptr noundef nonnull align 8 dereferenceable(24) %randomStart_, i64 noundef %5) #15
  %6 = load i64, ptr %call3, align 8, !tbaa !7
  %add = add i64 %4, %6
  store i64 %add, ptr %k, align 8, !tbaa !7
  br label %while.cond

while.cond:                                       ; preds = %while.body, %for.body
  %7 = load i64, ptr %k, align 8, !tbaa !7
  %cmp4 = icmp ne i64 %7, 0
  br i1 %cmp4, label %while.body, label %while.end

while.body:                                       ; preds = %while.cond
  %8 = load i64, ptr %b, align 8, !tbaa !7
  %conv = uitofp i64 %8 to double
  %9 = load double, ptr %f, align 8, !tbaa !24
  %div = fdiv double %9, %conv
  store double %div, ptr %f, align 8, !tbaa !24
  %10 = load i64, ptr %k, align 8, !tbaa !7
  %11 = load i64, ptr %b, align 8, !tbaa !7
  %rem = urem i64 %10, %11
  %conv5 = uitofp i64 %rem to double
  %12 = load double, ptr %f, align 8, !tbaa !24
  %13 = load double, ptr %h, align 8, !tbaa !24
  %14 = call double @llvm.fmuladd.f64(double %conv5, double %12, double %13)
  store double %14, ptr %h, align 8, !tbaa !24
  %15 = load i64, ptr %b, align 8, !tbaa !7
  %16 = load i64, ptr %k, align 8, !tbaa !7
  %div6 = udiv i64 %16, %15
  store i64 %div6, ptr %k, align 8, !tbaa !7
  br label %while.cond, !llvm.loop !45

while.end:                                        ; preds = %while.cond
  %17 = load double, ptr %h, align 8, !tbaa !24
  %randomShift_ = getelementptr inbounds nuw %"class.QuantLib::HaltonRsg", ptr %this1, i32 0, i32 4
  %18 = load i64, ptr %i, align 8, !tbaa !7
  %call7 = call noundef nonnull align 8 dereferenceable(8) ptr @_ZNKSt6vectorIdSaIdEEixEm(ptr noundef nonnull align 8 dereferenceable(24) %randomShift_, i64 noundef %18) #15
  %19 = load double, ptr %call7, align 8, !tbaa !24
  %add8 = fadd double %17, %19
  %sequence_ = getelementptr inbounds nuw %"class.QuantLib::HaltonRsg", ptr %this1, i32 0, i32 2
  %value = getelementptr inbounds nuw %"struct.QuantLib::Sample", ptr %sequence_, i32 0, i32 0
  %20 = load i64, ptr %i, align 8, !tbaa !7
  %call9 = call noundef nonnull align 8 dereferenceable(8) ptr @_ZNSt6vectorIdSaIdEEixEm(ptr noundef nonnull align 8 dereferenceable(24) %value, i64 noundef %20) #15
  store double %add8, ptr %call9, align 8, !tbaa !24
  %sequence_10 = getelementptr inbounds nuw %"class.QuantLib::HaltonRsg", ptr %this1, i32 0, i32 2
  %value11 = getelementptr inbounds nuw %"struct.QuantLib::Sample", ptr %sequence_10, i32 0, i32 0
  %21 = load i64, ptr %i, align 8, !tbaa !7
  %call12 = call noundef nonnull align 8 dereferenceable(8) ptr @_ZNSt6vectorIdSaIdEEixEm(ptr noundef nonnull align 8 dereferenceable(24) %value11, i64 noundef %21) #15
  %22 = load double, ptr %call12, align 8, !tbaa !24
  %conv13 = fptosi double %22 to i64
  %conv14 = sitofp i64 %conv13 to double
  %sequence_15 = getelementptr inbounds nuw %"class.QuantLib::HaltonRsg", ptr %this1, i32 0, i32 2
  %value16 = getelementptr inbounds nuw %"struct.QuantLib::Sample", ptr %sequence_15, i32 0, i32 0
  %23 = load i64, ptr %i, align 8, !tbaa !7
  %call17 = call noundef nonnull align 8 dereferenceable(8) ptr @_ZNSt6vectorIdSaIdEEixEm(ptr noundef nonnull align 8 dereferenceable(24) %value16, i64 noundef %23) #15
  %24 = load double, ptr %call17, align 8, !tbaa !24
  %sub = fsub double %24, %conv14
  store double %sub, ptr %call17, align 8, !tbaa !24
  call void @llvm.lifetime.end.p0(i64 8, ptr %k) #15
  call void @llvm.lifetime.end.p0(i64 8, ptr %f) #15
  call void @llvm.lifetime.end.p0(i64 8, ptr %b) #15
  call void @llvm.lifetime.end.p0(i64 8, ptr %h) #15
  br label %for.inc

for.inc:                                          ; preds = %while.end
  %25 = load i64, ptr %i, align 8, !tbaa !7
  %inc18 = add i64 %25, 1
  store i64 %inc18, ptr %i, align 8, !tbaa !7
  br label %for.cond, !llvm.loop !46

for.end:                                          ; preds = %for.cond.cleanup
  %sequence_19 = getelementptr inbounds nuw %"class.QuantLib::HaltonRsg", ptr %this1, i32 0, i32 2
  ret ptr %sequence_19
}