; Function Attrs: mustprogress uwtable
define noundef nonnull align 8 dereferenceable(32) ptr @_ZNK8QuantLib9HaltonRsg12nextSequenceEv(ptr noundef nonnull align 8 dereferenceable(96) %this) local_unnamed_addr #3 align 2 {
entry:
  %sequenceCounter_ = getelementptr inbounds nuw i8, ptr %this, i64 8
  %0 = load i64, ptr %sequenceCounter_, align 8, !tbaa !19
  %inc = add i64 %0, 1
  store i64 %inc, ptr %sequenceCounter_, align 8, !tbaa !19
  %1 = load i64, ptr %this, align 8, !tbaa !3
  %cmp22.not = icmp eq i64 %1, 0
  br i1 %cmp22.not, label %for.cond.cleanup, label %for.body.lr.ph

for.body.lr.ph:                                   ; preds = %entry
  %randomStart_ = getelementptr inbounds nuw i8, ptr %this, i64 48
  %randomShift_ = getelementptr inbounds nuw i8, ptr %this, i64 72
  %sequence_ = getelementptr inbounds nuw i8, ptr %this, i64 16
  br label %for.body

for.cond.cleanup:                                 ; preds = %while.end, %entry
  %sequence_19 = getelementptr inbounds nuw i8, ptr %this, i64 16
  ret ptr %sequence_19

for.body:                                         ; preds = %for.body.lr.ph, %while.end
  %i.023 = phi i64 [ 0, %for.body.lr.ph ], [ %inc18, %while.end ]
  %call = tail call noundef i64 @_ZN8QuantLib12PrimeNumbers3getEm(i64 noundef %i.023)
  %2 = load i64, ptr %sequenceCounter_, align 8, !tbaa !19
  %3 = load ptr, ptr %randomStart_, align 8, !tbaa !25
  %add.ptr.i = getelementptr inbounds nuw i64, ptr %3, i64 %i.023
  %4 = load i64, ptr %add.ptr.i, align 8, !tbaa !27
  %add = add i64 %4, %2
  %cmp4.not18 = icmp eq i64 %add, 0
  br i1 %cmp4.not18, label %while.end, label %while.body.lr.ph

while.body.lr.ph:                                 ; preds = %for.body
  %conv = uitofp i64 %call to double
  br label %while.body

while.body:                                       ; preds = %while.body.lr.ph, %while.body
  %k.021 = phi i64 [ %add, %while.body.lr.ph ], [ %div6, %while.body ]
  %f.020 = phi double [ 1.000000e+00, %while.body.lr.ph ], [ %div, %while.body ]
  %h.019 = phi double [ 0.000000e+00, %while.body.lr.ph ], [ %5, %while.body ]
  %div = fdiv double %f.020, %conv
  %rem = urem i64 %k.021, %call
  %conv5 = uitofp i64 %rem to double
  %5 = tail call double @llvm.fmuladd.f64(double %conv5, double %div, double %h.019)
  %div6 = udiv i64 %k.021, %call
  %cmp4.not = icmp ugt i64 %call, %k.021
  br i1 %cmp4.not, label %while.end, label %while.body, !llvm.loop !52

while.end:                                        ; preds = %while.body, %for.body
  %h.0.lcssa = phi double [ 0.000000e+00, %for.body ], [ %5, %while.body ]
  %6 = load ptr, ptr %randomShift_, align 8, !tbaa !22
  %add.ptr.i14 = getelementptr inbounds nuw double, ptr %6, i64 %i.023
  %7 = load double, ptr %add.ptr.i14, align 8, !tbaa !20
  %add8 = fadd double %h.0.lcssa, %7
  %8 = load ptr, ptr %sequence_, align 8, !tbaa !22
  %add.ptr.i15 = getelementptr inbounds nuw double, ptr %8, i64 %i.023
  %conv13 = fptosi double %add8 to i64
  %conv14 = sitofp i64 %conv13 to double
  %sub = fsub double %add8, %conv14
  store double %sub, ptr %add.ptr.i15, align 8, !tbaa !20
  %inc18 = add nuw i64 %i.023, 1
  %9 = load i64, ptr %this, align 8, !tbaa !3
  %cmp = icmp ult i64 %inc18, %9
  br i1 %cmp, label %for.body, label %for.cond.cleanup, !llvm.loop !53
}